; Function Attrs: mustprogress nofree norecurse nosync nounwind willreturn memory(argmem: read) uwtable
define hidden noundef zeroext i1 @_ZNK5clang6driver10toolchains11Generic_GCC18isPICDefaultForcedEv(ptr nocapture noundef nonnull readonly align 8 dereferenceable(4488) %0) unnamed_addr #8 align 2 {
  %2 = getelementptr inbounds i8, ptr %0, i64 48
  %3 = load i32, ptr %2, align 8
  %4 = icmp eq i32 %3, 38
  %5 = getelementptr inbounds i8, ptr %0, i64 60
  %6 = load i32, ptr %5, align 4
  %7 = icmp eq i32 %6, 14
  %8 = select i1 %4, i1 %7, i1 false
  ret i1 %8
}